; Function Attrs: null_pointer_is_valid sspstrong uwtable
define internal void @mysql_dissect_exec_short(ptr noundef %0, ptr readnone captures(none) %1, ptr noundef captures(none) %2, ptr noundef %3, i32 %4) #0 {
  %6 = load i32, ptr @hf_mysql_exec_field_short, align 4
  %7 = load i32, ptr %2, align 4
  %8 = tail call ptr @proto_tree_add_item(ptr noundef %3, i32 noundef %6, ptr noundef %0, i32 noundef %7, i32 noundef 2, i32 noundef -2147483648)
  %9 = load i32, ptr %2, align 4
  %10 = add i32 %9, 2
  store i32 %10, ptr %2, align 4
  ret void
}